; ModuleID = '20/1302.c'
source_filename = "20/1302.c"
target datalayout = "e-m:e-p270:32:32-p271:32:32-p272:64:64-i64:64-f80:128-n8:16:32:64-S128"
target triple = "x86_64-pc-linux-gnu"

@.str = private unnamed_addr constant [5 x i8] c"%s%s\00", align 1

; Function Attrs: noinline nounwind uwtable
define dso_local i32 @main() #0 {
  %1 = alloca i32, align 4
  %2 = alloca i32, align 4
  %3 = alloca i32, align 4
  %4 = alloca i32, align 4
  %5 = alloca [11 x i8], align 1
  %6 = alloca [4 x i8], align 1
  %7 = alloca [15 x i8], align 1
  store i32 0, i32* %1, align 4
  br label %8

8:                                                ; preds = %100, %0
  %9 = bitcast [15 x i8]* %7 to i8*
  call void @llvm.memset.p0i8.i64(i8* align 1 %9, i8 0, i64 15, i1 false)
  %10 = getelementptr inbounds [11 x i8], [11 x i8]* %5, i64 0, i64 0
  %11 = getelementptr inbounds [4 x i8], [4 x i8]* %6, i64 0, i64 0
  %12 = call i32 (i8*, ...) @__isoc99_scanf(i8* getelementptr inbounds ([5 x i8], [5 x i8]* @.str, i64 0, i64 0), i8* %10, i8* %11)
  %13 = icmp eq i32 %12, -1
  br i1 %13, label %14, label %15

14:                                               ; preds = %8
  br label %103

15:                                               ; preds = %8
  %16 = getelementptr inbounds [11 x i8], [11 x i8]* %5, i64 0, i64 0
  %17 = call i64 @strlen(i8* %16) #4
  %18 = trunc i64 %17 to i32
  store i32 %18, i32* %4, align 4
  store i32 0, i32* %3, align 4
  store i32 0, i32* %2, align 4
  br label %19

19:                                               ; preds = %39, %15
  %20 = load i32, i32* %2, align 4
  %21 = load i32, i32* %4, align 4
  %22 = icmp slt i32 %20, %21
  br i1 %22, label %23, label %42

23:                                               ; preds = %19
  %24 = load i32, i32* %2, align 4
  %25 = sext i32 %24 to i64
  %26 = getelementptr inbounds [11 x i8], [11 x i8]* %5, i64 0, i64 %25
  %27 = load i8, i8* %26, align 1
  %28 = sext i8 %27 to i32
  %29 = load i32, i32* %3, align 4
  %30 = sext i32 %29 to i64
  %31 = getelementptr inbounds [11 x i8], [11 x i8]* %5, i64 0, i64 %30
  %32 = load i8, i8* %31, align 1
  %33 = sext i8 %32 to i32
  %34 = sub nsw i32 %28, %33
  %35 = icmp sgt i32 %34, 0
  br i1 %35, label %36, label %38

36:                                               ; preds = %23
  %37 = load i32, i32* %2, align 4
  store i32 %37, i32* %3, align 4
  br label %38

38:                                               ; preds = %36, %23
  br label %39

39:                                               ; preds = %38
  %40 = load i32, i32* %2, align 4
  %41 = add nsw i32 %40, 1
  store i32 %41, i32* %2, align 4
  br label %19

42:                                               ; preds = %19
  store i32 0, i32* %2, align 4
  br label %43

43:                                               ; preds = %55, %42
  %44 = load i32, i32* %2, align 4
  %45 = load i32, i32* %3, align 4
  %46 = icmp sle i32 %44, %45
  br i1 %46, label %47, label %58

47:                                               ; preds = %43
  %48 = load i32, i32* %2, align 4
  %49 = sext i32 %48 to i64
  %50 = getelementptr inbounds [11 x i8], [11 x i8]* %5, i64 0, i64 %49
  %51 = load i8, i8* %50, align 1
  %52 = load i32, i32* %2, align 4
  %53 = sext i32 %52 to i64
  %54 = getelementptr inbounds [15 x i8], [15 x i8]* %7, i64 0, i64 %53
  store i8 %51, i8* %54, align 1
  br label %55

55:                                               ; preds = %47
  %56 = load i32, i32* %2, align 4
  %57 = add nsw i32 %56, 1
  store i32 %57, i32* %2, align 4
  br label %43

58:                                               ; preds = %43
  store i32 1, i32* %2, align 4
  br label %59

59:                                               ; preds = %73, %58
  %60 = load i32, i32* %2, align 4
  %61 = icmp sle i32 %60, 3
  br i1 %61, label %62, label %76

62:                                               ; preds = %59
  %63 = load i32, i32* %2, align 4
  %64 = sub nsw i32 %63, 1
  %65 = sext i32 %64 to i64
  %66 = getelementptr inbounds [4 x i8], [4 x i8]* %6, i64 0, i64 %65
  %67 = load i8, i8* %66, align 1
  %68 = load i32, i32* %3, align 4
  %69 = load i32, i32* %2, align 4
  %70 = add nsw i32 %68, %69
  %71 = sext i32 %70 to i64
  %72 = getelementptr inbounds [15 x i8], [15 x i8]* %7, i64 0, i64 %71
  store i8 %67, i8* %72, align 1
  br label %73

73:                                               ; preds = %62
  %74 = load i32, i32* %2, align 4
  %75 = add nsw i32 %74, 1
  store i32 %75, i32* %2, align 4
  br label %59

76:                                               ; preds = %59
  store i32 1, i32* %2, align 4
  br label %77

77:                                               ; preds = %97, %76
  %78 = load i32, i32* %2, align 4
  %79 = load i32, i32* %4, align 4
  %80 = load i32, i32* %3, align 4
  %81 = sub nsw i32 %79, %80
  %82 = sub nsw i32 %81, 1
  %83 = icmp sle i32 %78, %82
  br i1 %83, label %84, label %100

84:                                               ; preds = %77
  %85 = load i32, i32* %3, align 4
  %86 = load i32, i32* %2, align 4
  %87 = add nsw i32 %85, %86
  %88 = sext i32 %87 to i64
  %89 = getelementptr inbounds [11 x i8], [11 x i8]* %5, i64 0, i64 %88
  %90 = load i8, i8* %89, align 1
  %91 = load i32, i32* %3, align 4
  %92 = add nsw i32 %91, 3
  %93 = load i32, i32* %2, align 4
  %94 = add nsw i32 %92, %93
  %95 = sext i32 %94 to i64
  %96 = getelementptr inbounds [15 x i8], [15 x i8]* %7, i64 0, i64 %95
  store i8 %90, i8* %96, align 1
  br label %97

97:                                               ; preds = %84
  %98 = load i32, i32* %2, align 4
  %99 = add nsw i32 %98, 1
  store i32 %99, i32* %2, align 4
  br label %77

100:                                              ; preds = %77
  %101 = getelementptr inbounds [15 x i8], [15 x i8]* %7, i64 0, i64 0
  %102 = call i32 @puts(i8* %101)
  br label %8

103:                                              ; preds = %14
  %104 = load i32, i32* %1, align 4
  ret i32 %104
}

; Function Attrs: argmemonly nounwind willreturn
declare void @llvm.memset.p0i8.i64(i8* nocapture writeonly, i8, i64, i1 immarg) #1

declare dso_local i32 @__isoc99_scanf(i8*, ...) #2

; Function Attrs: nounwind readonly
declare dso_local i64 @strlen(i8*) #3

declare dso_local i32 @puts(i8*) #2


!llvm.module.flags = !{!0}
!llvm.ident = !{!1}

!0 = !{i32 1, !"wchar_size", i32 4}
!1 = !{!"clang version 10.0.0-4ubuntu1 "}
